; Function Attrs: mustprogress uwtable
define hidden void @_ZN3sat6solver20fill_ext_antecedentsENS_7literalENS_13justificationEb(ptr noundef nonnull align 8 dereferenceable(4408) %this, i32 %consequent.coerce, ptr nocapture noundef readonly byval(%"class.sat::justification") align 8 %js, i1 noundef zeroext %probing) local_unnamed_addr #3 align 2 {
entry:
  %m_val1.i = getelementptr inbounds i8, ptr %js, i64 8
  %0 = load i64, ptr %m_val1.i, align 8
  %m_ext_antecedents = getelementptr inbounds i8, ptr %this, i64 4304
  %1 = load ptr, ptr %m_ext_antecedents, align 8
  %tobool.not.i = icmp eq ptr %1, null
  br i1 %tobool.not.i, label %_ZN6vectorIN3sat7literalELb0EjE5resetEv.exit, label %if.then.i

if.then.i:                                        ; preds = %entry
  %arrayidx.i = getelementptr inbounds i8, ptr %1, i64 -4
  store i32 0, ptr %arrayidx.i, align 4
  br label %_ZN6vectorIN3sat7literalELb0EjE5resetEv.exit

_ZN6vectorIN3sat7literalELb0EjE5resetEv.exit:     ; preds = %entry, %if.then.i
  %m_ext = getelementptr inbounds i8, ptr %this, i64 528
  %2 = load ptr, ptr %m_ext, align 8
  %vtable = load ptr, ptr %2, align 8
  %vfn = getelementptr inbounds i8, ptr %vtable, i64 80
  %3 = load ptr, ptr %vfn, align 8
  tail call void %3(ptr noundef nonnull align 8 dereferenceable(32) %2, i32 %consequent.coerce, i64 noundef %0, ptr noundef nonnull align 8 dereferenceable(8) %m_ext_antecedents, i1 noundef zeroext %probing)
  ret void
}